; Function Attrs: null_pointer_is_valid sspstrong uwtable
define internal void @bssgp_flow_cntrl_pfc(ptr noundef %0, ptr noundef %1, ptr noundef initializes((384, 388)) %2, i32 noundef %3, i32 noundef %4) #1 {
  %6 = getelementptr inbounds nuw i8, ptr %2, i64 384
  store i32 0, ptr %6, align 8
  %7 = icmp sgt i32 %4, 0
  br i1 %7, label %8, label %14

8:                                                ; preds = %5
  %9 = tail call zeroext i16 @elem_telv(ptr noundef %0, ptr noundef %1, ptr noundef %2, i8 noundef zeroext 31, i32 noundef 3, i32 noundef 68, i32 noundef %3, i32 noundef %4, ptr noundef null)
  %.not = icmp eq i16 %9, 0
  br i1 %.not, label %14, label %10

10:                                               ; preds = %8
  %11 = zext i16 %9 to i32
  %12 = add i32 %3, %11
  %13 = sub nsw i32 %4, %11
  br label %17

14:                                               ; preds = %8, %5
  %15 = tail call ptr @get_gsm_a_msg_string(i32 noundef 3, i32 noundef 68)
  %16 = tail call ptr (ptr, ptr, ptr, ptr, i32, i32, ptr, ...) @proto_tree_add_expert_format(ptr noundef %1, ptr noundef %2, ptr noundef nonnull @ei_bssgp_missing_mandatory_element, ptr noundef %0, i32 noundef %3, i32 noundef 0, ptr noundef nonnull @.str.6, i32 noundef 31, ptr noundef %15, ptr noundef nonnull @.str.7)
  br label %17

17:                                               ; preds = %14, %10
  %.092 = phi i32 [ %12, %10 ], [ %3, %14 ]
  %.0 = phi i32 [ %13, %10 ], [ %4, %14 ]
  %18 = icmp sgt i32 %.0, 0
  br i1 %18, label %19, label %25

19:                                               ; preds = %17
  %20 = tail call zeroext i16 @elem_telv(ptr noundef %0, ptr noundef %1, ptr noundef %2, i8 noundef zeroext 30, i32 noundef 13, i32 noundef 30, i32 noundef %.092, i32 noundef %.0, ptr noundef null)
  %.not107 = icmp eq i16 %20, 0
  br i1 %.not107, label %25, label %21

21:                                               ; preds = %19
  %22 = zext i16 %20 to i32
  %23 = add i32 %.092, %22
  %24 = sub nsw i32 %.0, %22
  br label %28

25:                                               ; preds = %19, %17
  %26 = tail call ptr @get_gsm_a_msg_string(i32 noundef 13, i32 noundef 30)
  %27 = tail call ptr (ptr, ptr, ptr, ptr, i32, i32, ptr, ...) @proto_tree_add_expert_format(ptr noundef %1, ptr noundef %2, ptr noundef nonnull @ei_bssgp_missing_mandatory_element, ptr noundef %0, i32 noundef %.092, i32 noundef 0, ptr noundef nonnull @.str.6, i32 noundef 30, ptr noundef %26, ptr noundef nonnull @.str.7)
  br label %28

28:                                               ; preds = %25, %21
  %.193 = phi i32 [ %23, %21 ], [ %.092, %25 ]
  %.1 = phi i32 [ %24, %21 ], [ %.0, %25 ]
  %29 = icmp slt i32 %.1, 1
  br i1 %29, label %66, label %30

30:                                               ; preds = %28
  %31 = tail call zeroext i16 @elem_telv(ptr noundef %0, ptr noundef %1, ptr noundef %2, i8 noundef zeroext 18, i32 noundef 13, i32 noundef 18, i32 noundef %.193, i32 noundef %.1, ptr noundef null)
  %32 = zext i16 %31 to i32
  %33 = sub nsw i32 %.1, %32
  %34 = icmp slt i32 %33, 1
  br i1 %34, label %66, label %35

35:                                               ; preds = %30
  %36 = add i32 %.193, %32
  %37 = tail call zeroext i16 @elem_telv(ptr noundef %0, ptr noundef %1, ptr noundef %2, i8 noundef zeroext 59, i32 noundef 13, i32 noundef 43, i32 noundef %36, i32 noundef %33, ptr noundef null)
  %38 = zext i16 %37 to i32
  %39 = sub nsw i32 %33, %38
  %40 = icmp slt i32 %39, 1
  br i1 %40, label %66, label %41

41:                                               ; preds = %35
  %42 = add i32 %36, %38
  %43 = tail call zeroext i16 @elem_telv(ptr noundef %0, ptr noundef %1, ptr noundef %2, i8 noundef zeroext 60, i32 noundef 13, i32 noundef 44, i32 noundef %42, i32 noundef %39, ptr noundef null)
  %44 = zext i16 %43 to i32
  %45 = add i32 %42, %44
  %46 = sub nsw i32 %39, %44
  %47 = icmp sgt i32 %46, 0
  br i1 %47, label %48, label %54

48:                                               ; preds = %41
  %49 = tail call zeroext i16 @elem_telv(ptr noundef %0, ptr noundef %1, ptr noundef %2, i8 noundef zeroext 82, i32 noundef 13, i32 noundef 61, i32 noundef %45, i32 noundef %46, ptr noundef null)
  %.not111 = icmp eq i16 %49, 0
  br i1 %.not111, label %54, label %50

50:                                               ; preds = %48
  %51 = zext i16 %49 to i32
  %52 = add i32 %45, %51
  %53 = sub nsw i32 %46, %51
  br label %57

54:                                               ; preds = %48, %41
  %55 = tail call ptr @get_gsm_a_msg_string(i32 noundef 13, i32 noundef 61)
  %56 = tail call ptr (ptr, ptr, ptr, ptr, i32, i32, ptr, ...) @proto_tree_add_expert_format(ptr noundef %1, ptr noundef %2, ptr noundef nonnull @ei_bssgp_missing_mandatory_element, ptr noundef %0, i32 noundef %45, i32 noundef 0, ptr noundef nonnull @.str.6, i32 noundef 82, ptr noundef %55, ptr noundef nonnull @.str.7)
  br label %57

57:                                               ; preds = %54, %50
  %.597 = phi i32 [ %52, %50 ], [ %45, %54 ]
  %.5 = phi i32 [ %53, %50 ], [ %46, %54 ]
  %58 = icmp slt i32 %.5, 1
  br i1 %58, label %66, label %59

59:                                               ; preds = %57
  %60 = tail call zeroext i16 @elem_telv(ptr noundef %0, ptr noundef %1, ptr noundef %2, i8 noundef zeroext 126, i32 noundef 13, i32 noundef 92, i32 noundef %.597, i32 noundef %.5, ptr noundef null)
  %61 = zext i16 %60 to i32
  %.not113 = icmp eq i32 %.5, %61
  br i1 %.not113, label %66, label %62

62:                                               ; preds = %59
  %63 = sub nsw i32 %.5, %61
  %64 = add i32 %.597, %61
  %65 = tail call ptr @proto_tree_add_expert(ptr noundef %1, ptr noundef %2, ptr noundef nonnull @ei_bssgp_extraneous_data, ptr noundef %0, i32 noundef %64, i32 noundef %63)
  br label %66

66:                                               ; preds = %59, %62, %57, %35, %30, %28
  ret void
}